; Function Attrs: mustprogress uwtable
define void @_ZN6icu_7512PluralFormatC2ERKNS_6LocaleE11UPluralTypeRKNS_13UnicodeStringER10UErrorCode(ptr noundef nonnull align 8 dereferenceable(712) %this, ptr noundef nonnull align 8 dereferenceable(217) %loc, i32 noundef %type, ptr noundef nonnull align 8 dereferenceable(64) %pat, ptr noundef nonnull align 4 dereferenceable(4) %status) unnamed_addr #1 align 2 personality ptr @__gxx_personality_v0 {
entry:
  tail call void @_ZN6icu_756FormatC2Ev(ptr noundef nonnull align 8 dereferenceable(322) %this)
  store ptr getelementptr inbounds ({ [11 x ptr] }, ptr @_ZTVN6icu_7512PluralFormatE, i64 0, i32 0, i64 2), ptr %this, align 8
  %locale = getelementptr inbounds i8, ptr %this, i64 328
  invoke void @_ZN6icu_756LocaleC1ERKS0_(ptr noundef nonnull align 8 dereferenceable(217) %locale, ptr noundef nonnull align 8 dereferenceable(217) %loc)
          to label %invoke.cont unwind label %lpad

invoke.cont:                                      ; preds = %entry
  %msgPattern = getelementptr inbounds i8, ptr %this, i64 552
  invoke void @_ZN6icu_7514MessagePatternC1ER10UErrorCode(ptr noundef nonnull align 8 dereferenceable(127) %msgPattern, ptr noundef nonnull align 4 dereferenceable(4) %status)
          to label %invoke.cont3 unwind label %lpad2

invoke.cont3:                                     ; preds = %invoke.cont
  %numberFormat = getelementptr inbounds i8, ptr %this, i64 680
  %pluralRulesWrapper = getelementptr inbounds i8, ptr %this, i64 696
  tail call void @llvm.memset.p0.i64(ptr noundef nonnull align 8 dereferenceable(16) %numberFormat, i8 0, i64 16, i1 false)
  store ptr getelementptr inbounds ({ [5 x ptr] }, ptr @_ZTVN6icu_7512PluralFormat21PluralSelectorAdapterE, i64 0, i32 0, i64 2), ptr %pluralRulesWrapper, align 8
  %pluralRules.i = getelementptr inbounds i8, ptr %this, i64 704
  store ptr null, ptr %pluralRules.i, align 8
  %0 = load i32, ptr %status, align 4
  %cmp.i.i = icmp slt i32 %0, 1
  br i1 %cmp.i.i, label %if.end.i, label %invoke.cont7

if.end.i:                                         ; preds = %invoke.cont3
  %call3.i6 = invoke noundef ptr @_ZN6icu_7511PluralRules9forLocaleERKNS_6LocaleE11UPluralTypeR10UErrorCode(ptr noundef nonnull align 8 dereferenceable(217) %locale, i32 noundef %type, ptr noundef nonnull align 4 dereferenceable(4) %status)
          to label %call3.i.noexc unwind label %lpad6

call3.i.noexc:                                    ; preds = %if.end.i
  store ptr %call3.i6, ptr %pluralRules.i, align 8
  %call14.i7 = invoke noundef ptr @_ZN6icu_7512NumberFormat14createInstanceERKNS_6LocaleER10UErrorCode(ptr noundef nonnull align 8 dereferenceable(217) %locale, ptr noundef nonnull align 4 dereferenceable(4) %status)
          to label %call14.i.noexc unwind label %lpad6

call14.i.noexc:                                   ; preds = %call3.i.noexc
  store ptr %call14.i7, ptr %numberFormat, align 8
  br label %invoke.cont7

invoke.cont7:                                     ; preds = %call14.i.noexc, %invoke.cont3
  %call.i10 = invoke noundef nonnull align 8 dereferenceable(127) ptr @_ZN6icu_7514MessagePattern16parsePluralStyleERKNS_13UnicodeStringEP11UParseErrorR10UErrorCode(ptr noundef nonnull align 8 dereferenceable(127) %msgPattern, ptr noundef nonnull align 8 dereferenceable(64) %pat, ptr noundef null, ptr noundef nonnull align 4 dereferenceable(4) %status)
          to label %call.i.noexc unwind label %lpad6

call.i.noexc:                                     ; preds = %invoke.cont7
  %1 = load i32, ptr %status, align 4
  %cmp.i.i8 = icmp slt i32 %1, 1
  br i1 %cmp.i.i8, label %if.end.i9, label %if.then.i

if.then.i:                                        ; preds = %call.i.noexc
  invoke void @_ZN6icu_7514MessagePattern5clearEv(ptr noundef nonnull align 8 dereferenceable(127) %msgPattern)
          to label %invoke.cont8 unwind label %lpad6

if.end.i9:                                        ; preds = %call.i.noexc
  %call5.i11 = invoke noundef double @_ZNK6icu_7514MessagePattern15getPluralOffsetEi(ptr noundef nonnull align 8 dereferenceable(127) %msgPattern, i32 noundef 0)
          to label %invoke.cont8 unwind label %lpad6

invoke.cont8:                                     ; preds = %if.then.i, %if.end.i9
  %.sink.i = phi double [ 0.000000e+00, %if.then.i ], [ %call5.i11, %if.end.i9 ]
  %offset = getelementptr inbounds i8, ptr %this, i64 688
  store double %.sink.i, ptr %offset, align 8
  ret void

lpad:                                             ; preds = %entry
  %2 = landingpad { ptr, i32 }
          cleanup
  br label %ehcleanup10

lpad2:                                            ; preds = %invoke.cont
  %3 = landingpad { ptr, i32 }
          cleanup
  br label %ehcleanup9

lpad6:                                            ; preds = %if.end.i9, %if.then.i, %invoke.cont7, %call3.i.noexc, %if.end.i
  %4 = landingpad { ptr, i32 }
          cleanup
  tail call void @_ZN6icu_7512PluralFormat21PluralSelectorAdapterD1Ev(ptr noundef nonnull align 8 dereferenceable(16) %pluralRulesWrapper) #15
  tail call void @_ZN6icu_7514MessagePatternD1Ev(ptr noundef nonnull align 8 dereferenceable(127) %msgPattern) #15
  br label %ehcleanup9

ehcleanup9:                                       ; preds = %lpad6, %lpad2
  %.pn = phi { ptr, i32 } [ %4, %lpad6 ], [ %3, %lpad2 ]
  tail call void @_ZN6icu_756LocaleD1Ev(ptr noundef nonnull align 8 dereferenceable(217) %locale) #15
  br label %ehcleanup10

ehcleanup10:                                      ; preds = %ehcleanup9, %lpad
  %.pn.pn = phi { ptr, i32 } [ %.pn, %ehcleanup9 ], [ %2, %lpad ]
  tail call void @_ZN6icu_756FormatD2Ev(ptr noundef nonnull align 8 dereferenceable(322) %this) #15
  resume { ptr, i32 } %.pn.pn
}